; Function Attrs: mustprogress nofree norecurse nosync nounwind willreturn memory(argmem: readwrite) uwtable
define internal range(i32 -1, 60) i32 @doctype4(ptr noundef captures(none) %0, i32 noundef %1, ptr readnone captures(none) %2, ptr readnone captures(none) %3, ptr readnone captures(none) %4) #2 {
  switch i32 %1, label %7 [
    i32 15, label %common.exit
    i32 25, label %common.exit.sink.split
    i32 17, label %6
  ]

6:                                                ; preds = %5
  br label %common.exit.sink.split

7:                                                ; preds = %5
  %8 = getelementptr inbounds nuw i8, ptr %0, i64 20
  %9 = load i32, ptr %8, align 4, !tbaa !9
  %10 = icmp eq i32 %9, 0
  %11 = icmp eq i32 %1, 28
  %or.cond.i = and i1 %11, %10
  br i1 %or.cond.i, label %common.exit, label %common.exit.sink.split

common.exit.sink.split:                           ; preds = %7, %5, %6
  %error.sink = phi ptr [ @prolog2, %6 ], [ @internalSubset, %5 ], [ @error, %7 ]
  %.0.ph = phi i32 [ 8, %6 ], [ 7, %5 ], [ -1, %7 ]
  store ptr %error.sink, ptr %0, align 8, !tbaa !3
  br label %common.exit

common.exit:                                      ; preds = %common.exit.sink.split, %7, %5
  %.0 = phi i32 [ 3, %5 ], [ 59, %7 ], [ %.0.ph, %common.exit.sink.split ]
  ret i32 %.0
}